; Function Attrs: nounwind uwtable
define ptr @l_Lean_Grind_CommRing_Expr_denoteExpr_go___rarg___lambda__10(ptr noundef %0, ptr noundef %1, ptr noundef %2, ptr noundef %3, ptr noundef %4, ptr noundef %5) #0 {
  %7 = ptrtoint ptr %1 to i64
  %8 = and i64 %7, 1
  %.not = icmp eq i64 %8, 0
  br i1 %.not, label %9, label %lean_inc.exit21

9:                                                ; preds = %6
  %.val.i = load i32, ptr %1, align 4, !tbaa !6
  %10 = icmp sgt i32 %.val.i, 0
  br i1 %10, label %11, label %13, !prof !5

11:                                               ; preds = %9
  %12 = add nuw i32 %.val.i, 1
  store i32 %12, ptr %1, align 4, !tbaa !6
  br label %lean_inc.exit21

13:                                               ; preds = %9
  %.not.i = icmp eq i32 %.val.i, 0
  br i1 %.not.i, label %lean_inc.exit21, label %14

14:                                               ; preds = %13
  tail call void @lean_inc_ref_cold(ptr noundef nonnull %1) #3
  br label %lean_inc.exit21

lean_inc.exit21:                                  ; preds = %14, %13, %11, %6
  %15 = ptrtoint ptr %0 to i64
  %16 = and i64 %15, 1
  %.not28 = icmp eq i64 %16, 0
  br i1 %.not28, label %17, label %lean_inc.exit20

17:                                               ; preds = %lean_inc.exit21
  %.val.i22 = load i32, ptr %0, align 4, !tbaa !6
  %18 = icmp sgt i32 %.val.i22, 0
  br i1 %18, label %19, label %21, !prof !5

19:                                               ; preds = %17
  %20 = add nuw i32 %.val.i22, 1
  store i32 %20, ptr %0, align 4, !tbaa !6
  br label %lean_inc.exit20

21:                                               ; preds = %17
  %.not.i23 = icmp eq i32 %.val.i22, 0
  br i1 %.not.i23, label %lean_inc.exit20, label %22

22:                                               ; preds = %21
  tail call void @lean_inc_ref_cold(ptr noundef nonnull %0) #3
  br label %lean_inc.exit20

lean_inc.exit20:                                  ; preds = %22, %21, %19, %lean_inc.exit21
  %23 = tail call ptr @l_Lean_Grind_CommRing_Expr_denoteExpr_go___rarg(ptr noundef %0, ptr noundef %1, ptr noundef %2)
  %24 = ptrtoint ptr %4 to i64
  %25 = and i64 %24, 1
  %.not29 = icmp eq i64 %25, 0
  br i1 %.not29, label %26, label %lean_inc.exit

26:                                               ; preds = %lean_inc.exit20
  %.val.i25 = load i32, ptr %4, align 4, !tbaa !6
  %27 = icmp sgt i32 %.val.i25, 0
  br i1 %27, label %28, label %30, !prof !5

28:                                               ; preds = %26
  %29 = add nuw i32 %.val.i25, 1
  store i32 %29, ptr %4, align 4, !tbaa !6
  br label %lean_inc.exit

30:                                               ; preds = %26
  %.not.i26 = icmp eq i32 %.val.i25, 0
  br i1 %.not.i26, label %lean_inc.exit, label %31

31:                                               ; preds = %30
  tail call void @lean_inc_ref_cold(ptr noundef nonnull %4) #3
  br label %lean_inc.exit

lean_inc.exit:                                    ; preds = %31, %30, %28, %lean_inc.exit20
  tail call void @lean_inc_heartbeat() #3
  %32 = tail call noalias ptr @mi_malloc_small(i64 noundef 64) #3
  %33 = icmp eq ptr %32, null
  br i1 %33, label %34, label %lean_alloc_closure.exit

34:                                               ; preds = %lean_inc.exit
  tail call void @lean_internal_panic_out_of_memory() #4
  unreachable

lean_alloc_closure.exit:                          ; preds = %lean_inc.exit
  %35 = getelementptr inbounds nuw i8, ptr %32, i64 4
  store i32 1, ptr %32, align 4, !tbaa !6
  store i32 -184549312, ptr %35, align 4
  %36 = getelementptr inbounds nuw i8, ptr %32, i64 8
  store ptr @l_Lean_Grind_CommRing_Expr_denoteExpr_go___rarg___lambda__9, ptr %36, align 8, !tbaa !11
  %37 = getelementptr inbounds nuw i8, ptr %32, i64 16
  store i16 6, ptr %37, align 8, !tbaa !13
  %38 = getelementptr inbounds nuw i8, ptr %32, i64 18
  store i16 5, ptr %38, align 2, !tbaa !13
  %39 = getelementptr inbounds nuw i8, ptr %32, i64 24
  store ptr %0, ptr %39, align 8, !tbaa !11
  %40 = getelementptr inbounds nuw i8, ptr %32, i64 32
  store ptr %1, ptr %40, align 8, !tbaa !11
  %41 = getelementptr inbounds nuw i8, ptr %32, i64 40
  store ptr %3, ptr %41, align 8, !tbaa !11
  %42 = getelementptr inbounds nuw i8, ptr %32, i64 48
  store ptr %5, ptr %42, align 8, !tbaa !11
  %43 = getelementptr inbounds nuw i8, ptr %32, i64 56
  store ptr %4, ptr %43, align 8, !tbaa !11
  %44 = tail call ptr @lean_apply_4(ptr noundef %4, ptr noundef nonnull inttoptr (i64 1 to ptr), ptr noundef nonnull inttoptr (i64 1 to ptr), ptr noundef %23, ptr noundef nonnull %32) #3
  ret ptr %44
}